target datalayout = "e-m:e-p270:32:32-p271:32:32-p272:64:64-i64:64-i128:128-f80:128-n8:16:32:64-S128"
target triple = "x86_64-pc-linux-gnu"

@.str.229 = private unnamed_addr constant [12 x i8] c"%d.%d.%d.%d\00", align 1

; Function Attrs: null_pointer_is_valid sspstrong uwtable
define internal void @format_version_long(ptr noundef %0, i64 noundef %1) #0 {
  %3 = alloca ptr, align 8
  %4 = alloca i64, align 8
  store ptr %0, ptr %3, align 8
  store i64 %1, ptr %4, align 8
  %5 = load ptr, ptr %3, align 8
  %6 = load ptr, ptr %3, align 8
  %7 = call i64 @llvm.objectsize.i64.p0(ptr %6, i1 false, i1 true, i1 true)
  %8 = load i64, ptr %4, align 8
  %9 = and i64 %8, -281474976710656
  %10 = lshr i64 %9, 48
  %11 = trunc i64 %10 to i32
  %12 = load i64, ptr %4, align 8
  %13 = and i64 %12, 281470681743360
  %14 = lshr i64 %13, 32
  %15 = trunc i64 %14 to i32
  %16 = load i64, ptr %4, align 8
  %17 = and i64 %16, 4294901760
  %18 = lshr i64 %17, 16
  %19 = trunc i64 %18 to i32
  %20 = load i64, ptr %4, align 8
  %21 = and i64 %20, 65535
  %22 = trunc i64 %21 to i32
  %23 = call i32 (ptr, i64, i32, i64, ptr, ...) @__snprintf_chk(ptr noundef %5, i64 noundef 240, i32 noundef 2, i64 noundef %7, ptr noundef @.str.229, i32 noundef %11, i32 noundef %15, i32 noundef %19, i32 noundef %22)
  ret void
}