; Function Attrs: nofree null_pointer_is_valid sspstrong uwtable
define internal void @format_version_long(ptr noundef %0, i64 noundef %1) #1 {
  %3 = lshr i64 %1, 48
  %4 = trunc nuw nsw i64 %3 to i32
  %5 = lshr i64 %1, 32
  %6 = trunc nuw i64 %5 to i32
  %7 = and i32 %6, 65535
  %8 = trunc i64 %1 to i32
  %9 = lshr i32 %8, 16
  %10 = and i32 %8, 65535
  %11 = tail call i32 (ptr, i64, i32, i64, ptr, ...) @__snprintf_chk(ptr noundef %0, i64 noundef 240, i32 noundef 2, i64 noundef -1, ptr noundef nonnull @.str.229, i32 noundef %4, i32 noundef %7, i32 noundef %9, i32 noundef %10)
  ret void
}